target datalayout = "e-m:e-p270:32:32-p271:32:32-p272:64:64-i64:64-i128:128-f80:128-n8:16:32:64-S128"
target triple = "x86_64-pc-linux-gnu"

%struct.CPState = type { i32, i32, %struct.CPValue, ptr, ptr, ptr, %struct.SBuf, ptr, ptr, ptr, ptr, i32, i32, i32, i32, [7 x i8], i8 }
%struct.CPValue = type { %union.anon, i32 }
%union.anon = type { i32 }
%struct.SBuf = type { ptr, ptr, ptr, %struct.MRef }
%struct.MRef = type { i64 }

; Function Attrs: alwaysinline nounwind uwtable
define internal i32 @cp_get(ptr noundef %0) #6 {
  %2 = alloca i32, align 4
  %3 = alloca ptr, align 8
  store ptr %0, ptr %3, align 8, !tbaa !20
  %4 = load ptr, ptr %3, align 8, !tbaa !20
  %5 = getelementptr inbounds nuw %struct.CPState, ptr %4, i32 0, i32 5
  %6 = load ptr, ptr %5, align 8, !tbaa !75
  %7 = getelementptr inbounds nuw i8, ptr %6, i32 1
  store ptr %7, ptr %5, align 8, !tbaa !75
  %8 = load i8, ptr %6, align 1, !tbaa !13
  %9 = zext i8 %8 to i32
  %10 = load ptr, ptr %3, align 8, !tbaa !20
  %11 = getelementptr inbounds nuw %struct.CPState, ptr %10, i32 0, i32 0
  store i32 %9, ptr %11, align 8, !tbaa !76
  %12 = load ptr, ptr %3, align 8, !tbaa !20
  %13 = getelementptr inbounds nuw %struct.CPState, ptr %12, i32 0, i32 0
  %14 = load i32, ptr %13, align 8, !tbaa !76
  %15 = icmp ne i32 %14, 92
  %16 = xor i1 %15, true
  %17 = xor i1 %16, true
  %18 = zext i1 %17 to i32
  %19 = sext i32 %18 to i64
  %20 = call i64 @llvm.expect.i64(i64 %19, i64 1)
  %21 = icmp ne i64 %20, 0
  br i1 %21, label %22, label %26

22:                                               ; preds = %1
  %23 = load ptr, ptr %3, align 8, !tbaa !20
  %24 = getelementptr inbounds nuw %struct.CPState, ptr %23, i32 0, i32 0
  %25 = load i32, ptr %24, align 8, !tbaa !76
  store i32 %25, ptr %2, align 4
  br label %29

26:                                               ; preds = %1
  %27 = load ptr, ptr %3, align 8, !tbaa !20
  %28 = call i32 @cp_get_bs(ptr noundef %27)
  store i32 %28, ptr %2, align 4
  br label %29

29:                                               ; preds = %26, %22
  %30 = load i32, ptr %2, align 4
  ret i32 %30
}

; Function Attrs: alwaysinline nounwind uwtable
define internal i32 @cp_iseol(i32 noundef %0) #6 {
  %2 = alloca i32, align 4
  store i32 %0, ptr %2, align 4, !tbaa !11
  %3 = load i32, ptr %2, align 4, !tbaa !11
  %4 = icmp eq i32 %3, 10
  br i1 %4, label %8, label %5

5:                                                ; preds = %1
  %6 = load i32, ptr %2, align 4, !tbaa !11
  %7 = icmp eq i32 %6, 13
  br label %8

8:                                                ; preds = %5, %1
  %9 = phi i1 [ true, %1 ], [ %7, %5 ]
  %10 = zext i1 %9 to i32
  ret i32 %10
}

; Function Attrs: alwaysinline nounwind uwtable
define internal i32 @cp_rawpeek(ptr noundef %0) #6 {
  %2 = alloca ptr, align 8
  store ptr %0, ptr %2, align 8, !tbaa !20
  %3 = load ptr, ptr %2, align 8, !tbaa !20
  %4 = getelementptr inbounds nuw %struct.CPState, ptr %3, i32 0, i32 5
  %5 = load ptr, ptr %4, align 8, !tbaa !75
  %6 = load i8, ptr %5, align 1, !tbaa !13
  %7 = zext i8 %6 to i32
  ret i32 %7
}

; Function Attrs: noinline nounwind uwtable
define internal i32 @cp_get_bs(ptr noundef %0) #7 {
  %2 = alloca i32, align 4
  %3 = alloca ptr, align 8
  %4 = alloca i32, align 4
  %5 = alloca i32, align 4
  %6 = alloca i32, align 4
  store ptr %0, ptr %3, align 8, !tbaa !20
  call void @llvm.lifetime.start.p0(i64 4, ptr %4) #13
  call void @llvm.lifetime.start.p0(i64 4, ptr %5) #13
  %7 = load ptr, ptr %3, align 8, !tbaa !20
  %8 = call i32 @cp_rawpeek(ptr noundef %7)
  store i32 %8, ptr %5, align 4, !tbaa !11
  %9 = load i32, ptr %5, align 4, !tbaa !11
  %10 = call i32 @cp_iseol(i32 noundef %9)
  %11 = icmp ne i32 %10, 0
  br i1 %11, label %16, label %12

12:                                               ; preds = %1
  %13 = load ptr, ptr %3, align 8, !tbaa !20
  %14 = getelementptr inbounds nuw %struct.CPState, ptr %13, i32 0, i32 0
  %15 = load i32, ptr %14, align 8, !tbaa !76
  store i32 %15, ptr %2, align 4
  store i32 1, ptr %6, align 4
  br label %42

16:                                               ; preds = %1
  %17 = load ptr, ptr %3, align 8, !tbaa !20
  %18 = getelementptr inbounds nuw %struct.CPState, ptr %17, i32 0, i32 5
  %19 = load ptr, ptr %18, align 8, !tbaa !75
  %20 = getelementptr inbounds nuw i8, ptr %19, i32 1
  store ptr %20, ptr %18, align 8, !tbaa !75
  %21 = load ptr, ptr %3, align 8, !tbaa !20
  %22 = call i32 @cp_rawpeek(ptr noundef %21)
  store i32 %22, ptr %4, align 4, !tbaa !11
  %23 = load i32, ptr %4, align 4, !tbaa !11
  %24 = call i32 @cp_iseol(i32 noundef %23)
  %25 = icmp ne i32 %24, 0
  br i1 %25, label %26, label %35

26:                                               ; preds = %16
  %27 = load i32, ptr %4, align 4, !tbaa !11
  %28 = load i32, ptr %5, align 4, !tbaa !11
  %29 = icmp ne i32 %27, %28
  br i1 %29, label %30, label %35

30:                                               ; preds = %26
  %31 = load ptr, ptr %3, align 8, !tbaa !20
  %32 = getelementptr inbounds nuw %struct.CPState, ptr %31, i32 0, i32 5
  %33 = load ptr, ptr %32, align 8, !tbaa !75
  %34 = getelementptr inbounds nuw i8, ptr %33, i32 1
  store ptr %34, ptr %32, align 8, !tbaa !75
  br label %35

35:                                               ; preds = %30, %26, %16
  %36 = load ptr, ptr %3, align 8, !tbaa !20
  %37 = getelementptr inbounds nuw %struct.CPState, ptr %36, i32 0, i32 11
  %38 = load i32, ptr %37, align 8, !tbaa !53
  %39 = add nsw i32 %38, 1
  store i32 %39, ptr %37, align 8, !tbaa !53
  %40 = load ptr, ptr %3, align 8, !tbaa !20
  %41 = call i32 @cp_get(ptr noundef %40)
  store i32 %41, ptr %2, align 4
  store i32 1, ptr %6, align 4
  br label %42

42:                                               ; preds = %35, %12
  call void @llvm.lifetime.end.p0(i64 4, ptr %5) #13
  call void @llvm.lifetime.end.p0(i64 4, ptr %4) #13
  %43 = load i32, ptr %2, align 4
  ret i32 %43
}