; Function Attrs: nofree noinline norecurse nosync nounwind memory(read, argmem: readwrite, inaccessiblemem: none) uwtable
define internal fastcc i32 @cp_get_bs(ptr noundef captures(none) %0) unnamed_addr #7 {
  %2 = getelementptr inbounds nuw i8, ptr %0, i64 32
  %.promoted = load ptr, ptr %2, align 8, !tbaa !61
  %3 = getelementptr inbounds nuw i8, ptr %0, i64 104
  br label %tailrecurse

tailrecurse:                                      ; preds = %8, %1
  %4 = phi ptr [ %16, %8 ], [ %.promoted, %1 ]
  %5 = load i8, ptr %4, align 1, !tbaa !4
  switch i8 %5, label %6 [
    i8 13, label %8
    i8 10, label %8
  ]

6:                                                ; preds = %tailrecurse
  %7 = load i32, ptr %0, align 8, !tbaa !62
  br label %cp_get.exit

8:                                                ; preds = %tailrecurse, %tailrecurse
  %9 = getelementptr inbounds nuw i8, ptr %4, i64 1
  store ptr %9, ptr %2, align 8, !tbaa !61
  %10 = load i8, ptr %9, align 1, !tbaa !4
  %11 = icmp ne i8 %10, 10
  %12 = icmp ne i8 %10, 13
  %.not17 = and i1 %11, %12
  %.not12 = icmp eq i8 %10, %5
  %or.cond = or i1 %.not12, %.not17
  %13 = getelementptr inbounds nuw i8, ptr %4, i64 2
  %spec.select = select i1 %or.cond, ptr %9, ptr %13
  %14 = load i32, ptr %3, align 8, !tbaa !57
  %15 = add nsw i32 %14, 1
  store i32 %15, ptr %3, align 8, !tbaa !57
  %16 = getelementptr inbounds nuw i8, ptr %spec.select, i64 1
  store ptr %16, ptr %2, align 8, !tbaa !61
  %17 = load i8, ptr %spec.select, align 1, !tbaa !4
  %18 = zext i8 %17 to i32
  store i32 %18, ptr %0, align 8, !tbaa !62
  %.not.i = icmp eq i8 %17, 92
  br i1 %.not.i, label %tailrecurse, label %cp_get.exit, !prof !63

cp_get.exit:                                      ; preds = %8, %6
  %.0 = phi i32 [ %7, %6 ], [ %18, %8 ]
  ret i32 %.0
}